MPASM 5.84            PROGRAMA_PRINCIPAL.ASM   6-6-2020  17:45:30         PAGE  1


LOC  OBJECT CODE     LINE SOURCE TEXT
  VALUE

                      00001 
                      00002 ; PIC16F877A Configuration Bit Settings
                      00003 
                      00004 ; Assembly source line config statements
                      00005 
                      00006 #include "p16f877a.inc"
                      00001         LIST
                      00002 
                      00003 ;==========================================================================
                      00004 ; Build date : Mar 17 2019
                      00005 ;  MPASM PIC16F877A processor include
                      00006 ; 
                      00007 ;  (c) Copyright 1999-2019 Microchip Technology, All rights reserved
                      00008 ;==========================================================================
                      00009 
                      00567         LIST
                      00007 
                      00008 ; CONFIG
                      00009 ; __config 0xFF32
2007   3F32           00010  __CONFIG _FOSC_HS & _WDTE_OFF & _PWRTE_ON & _BOREN_OFF & _LVP_OFF & _CPD_OFF & _WRT_OFF & _CP_OFF
                      00011 
                      00012  
                      00013         ORG     0
0000   2???           00014         GOTO    INICIO
                      00015         ORG     0X0020
0020                  00016 INICIO
0020   2???           00017         CALL    LCD_INIT
0021   3001           00018         MOVLW   .1
0022   2???           00019         CALL    LCD_LINEA1
0023   3048           00020         MOVLW   'H'
0024   2???           00021         CALL    LCD_CARACTER
0025   304F           00022         MOVLW   'O'
0026   2???           00023         CALL    LCD_CARACTER
0027   304C           00024         MOVLW   'L'
0028   2???           00025         CALL    LCD_CARACTER
0029   3041           00026         MOVLW   'A'
002A   2???           00027         CALL    LCD_CARACTER
002B   3005           00028         MOVLW   .5
002C   2???           00029         CALL    LCD_LINEA2
002D   3057           00030         MOVLW   'W'
002E   2???           00031         CALL    LCD_CARACTER
002F   3045           00032         MOVLW   'E'
0030   2???           00033         CALL    LCD_CARACTER
0031   304C           00034         MOVLW   'L'
0032   2???           00035         CALL    LCD_CARACTER
0033   3053           00036         MOVLW   'S'
0034   2???           00037         CALL    LCD_CARACTER
0035                  00038 START
0035   2???           00039         GOTO    START
                      00040 #INCLUDE <LCD_4bits.inc>
Warning[205]: Found directive in column 1. (CBLOCK)
                      00001 CBLOCK 0X20
  00000020            00002 GUARDAR_DATO
MPASM 5.84            PROGRAMA_PRINCIPAL.ASM   6-6-2020  17:45:30         PAGE  2


LOC  OBJECT CODE     LINE SOURCE TEXT
  VALUE

  00000021            00003 COMANDO
  00000022            00004 DATA_GUARDAR
  00000023            00005 DATAS
  00000024            00006 CUENTA
  00000025            00007 DATO
Warning[205]: Found directive in column 1. (ENDC)
                      00008 ENDC
                      00009     
                      00010 #DEFINE     RS      PORTC,0
                      00011 #DEFINE     E       PORTC,1
                      00012 ;#DEFINE            RW      PORTC,2
                      00013 
0036                  00014 LCD_INIT
0036   1683           00015     BSF     STATUS,RP0
Message[302]: Register in operand not in bank 0.  Ensure that bank bits are correct.
0037   0188           00016     CLRF    TRISD; SALIDA
Message[302]: Register in operand not in bank 0.  Ensure that bank bits are correct.
0038   0187           00017     CLRF    TRISC; SALIDA
0039   1283           00018     BCF     STATUS,RP0
003A   2???           00019     CALL    Retardo_1ms
003B   1007           00020     BCF     RS; COMANDO
003C   3030           00021     MOVLW   0X30; RD4 RD5 RD6 RD7 -> RD3 AL RD0 
003D   2???           00022     CALL    LCD_CONFIG
003E   2???           00023     CALL    Retardo_1ms
003F   3030           00024     MOVLW   0X30
0040   2???           00025     CALL    LCD_CONFIG
0041   2???           00026     CALL    Retardo_1ms
0042   3030           00027     MOVLW   0X30
0043   2???           00028     CALL    LCD_CONFIG
0044   2???           00029     CALL    Retardo_1ms
0045   3020           00030     MOVLW   0X20; 4 BITS
0046   2???           00031     CALL    LCD_CONFIG
0047   2???           00032     CALL    LCD_2LINEAS; 0X28
0048   2???           00033     CALL    LCD_DISPLAY; 0X0C
0049   2???           00034     CALL    LCD_BORRAR; 0X01
004A   2???           00035     CALL    LCD_INCR    ;0X06
004B   0008           00036     RETURN
004C                  00037 LCD_LINEA2
004C   3EC0           00038     ADDLW   0XC0
004D   2???           00039     GOTO    LCD_COMANDO
004E                  00040 LCD_LINEA1
004E   3E80           00041     ADDLW   0X80; 0X80 + 1 = 0X81
004F   2???           00042     GOTO    LCD_COMANDO
0050                  00043 LCD_DISPLAY
0050   300C           00044     MOVLW   0X0C
0051   2???           00045     GOTO    LCD_COMANDO
0052                  00046 LCD_BORRAR
0052   3001           00047     MOVLW   0X01
0053   2???           00048     GOTO    LCD_COMANDO
0054                  00049 LCD_INCR
0054   3006           00050     MOVLW   0X06
0055   2???           00051     GOTO    LCD_COMANDO
0056                  00052 LCD_2LINEAS
MPASM 5.84            PROGRAMA_PRINCIPAL.ASM   6-6-2020  17:45:30         PAGE  3


LOC  OBJECT CODE     LINE SOURCE TEXT
  VALUE

0056   3028           00053     MOVLW   0X28
0057   2???           00054     GOTO    LCD_COMANDO
0058                  00055 LCD_COMANDO
0058   00A1           00056     MOVWF   COMANDO; 0X28
0059   0821           00057     MOVF    COMANDO,W
005A   2???           00058     CALL    LCD_CONFIG
005B   0EA1           00059     SWAPF   COMANDO,F; 0X28 -> 0X82
005C   0821           00060     MOVF    COMANDO,W
005D   2???           00061     CALL    LCD_CONFIG
005E   0008           00062     RETURN
005F                  00063 LCD_CARACTER
                      00064     ;W = H 
005F   00A2           00065     MOVWF   DATA_GUARDAR
0060   1407           00066     BSF     RS; CARACTER
0061   2???           00067     CALL    LCD_DATOS
0062   0EA2           00068     SWAPF   DATA_GUARDAR,F
0063   0822           00069     MOVF    DATA_GUARDAR,W
0064   2???           00070     CALL    LCD_DATOS
0065   0008           00071     RETURN
0066                  00072 LCD_DATOS
0066   39F0           00073     ANDLW   B'11110000'
0067   00A3           00074     MOVWF   DATAS
0068   1407           00075     BSF     RS;MODO CARACTER
0069   0808           00076     MOVF    PORTD,W
006A   390F           00077     ANDLW   B'00001111'
Message[305]: Using default destination of 1 (file).
006B   04A3           00078     IORWF   DATAS
006C   0823           00079     MOVF    DATAS,W
006D   0088           00080     MOVWF   PORTD
006E   2???           00081     CALL    ENABLE
006F   0008           00082     RETURN
0070                  00083 LCD_CONFIG
                      00084     ;W = 0X30
0070   39F0           00085     ANDLW   B'11110000';
                      00086     ;         00110000
                      00087     ; W=      00110000
0071   00A0           00088     MOVWF   GUARDAR_DATO
0072   1007           00089     BCF     RS; MODO COMANDO
0073   0808           00090     MOVF    PORTD,W
0074   390F           00091     ANDLW   B'00001111'
                      00092     ;         XXXX0101
                      00093     ;     W = 00000101
Message[305]: Using default destination of 1 (file).
0075   04A0           00094     IORWF   GUARDAR_DATO
                      00095     ; 00110000 OR 00000101 = 00110101
0076   0820           00096     MOVF    GUARDAR_DATO,W
0077   0088           00097     MOVWF   PORTD
0078   2???           00098     CALL    ENABLE
0079   0008           00099     RETURN
007A                  00100 ENABLE
007A   2???           00101     CALL    Retardo_1ms
007B   2???           00102     CALL    Retardo_1ms
007C   1487           00103     BSF     E
MPASM 5.84            PROGRAMA_PRINCIPAL.ASM   6-6-2020  17:45:30         PAGE  4


LOC  OBJECT CODE     LINE SOURCE TEXT
  VALUE

007D   2???           00104     CALL    Retardo_1ms
007E   1087           00105     BCF     E
007F   0008           00106     RETURN
                      00107     
                      00108     
0080                  00109 Retardo_1ms
0080   30FA           00110   MOVLW     .250
0081   00A4           00111   MOVWF     CUENTA
0082                  00112 BUCLE
0082   0000           00113   NOP
0083   0BA4           00114   DECFSZ    CUENTA,F
0084   2???           00115   GOTO      BUCLE
0085   0825           00116   MOVF      DATO,W
0086   0008           00117   RETURN
3F32                  00041         END
MPASM 5.84            PROGRAMA_PRINCIPAL.ASM   6-6-2020  17:45:30         PAGE  5


SYMBOL TABLE
  LABEL                             VALUE 

ACKDT                             00000005
ACKEN                             00000004
ACKSTAT                           00000006
ADCON0                            0000001F
ADCON1                            0000009F
ADCS0                             00000006
ADCS1                             00000007
ADCS2                             00000006
ADDEN                             00000003
ADFM                              00000007
ADIE                              00000006
ADIF                              00000006
ADON                              00000000
ADRESH                            0000001E
ADRESL                            0000009E
BCLIE                             00000003
BCLIF                             00000003
BF                                00000000
BRGH                              00000002
BUCLE                             00000082
C                                 00000000
C1INV                             00000004
C1OUT                             00000006
C2INV                             00000005
C2OUT                             00000007
CCP1CON                           00000017
CCP1IE                            00000002
CCP1IF                            00000002
CCP1M0                            00000000
CCP1M1                            00000001
CCP1M2                            00000002
CCP1M3                            00000003
CCP1X                             00000005
CCP1Y                             00000004
CCP2CON                           0000001D
CCP2IE                            00000000
CCP2IF                            00000000
CCP2M0                            00000000
CCP2M1                            00000001
CCP2M2                            00000002
CCP2M3                            00000003
CCP2X                             00000005
CCP2Y                             00000004
CCPR1                             00000015
CCPR1H                            00000016
CCPR1L                            00000015
CCPR2                             0000001B
CCPR2H                            0000001C
CCPR2L                            0000001B
CHS0                              00000003
CHS1                              00000004
CHS2                              00000005
CIS                               00000003
MPASM 5.84            PROGRAMA_PRINCIPAL.ASM   6-6-2020  17:45:30         PAGE  6


SYMBOL TABLE
  LABEL                             VALUE 

CKE                               00000006
CKP                               00000004
CM0                               00000000
CM1                               00000001
CM2                               00000002
CMCON                             0000009C
CMIE                              00000006
CMIF                              00000006
COMANDO                           00000021
CREN                              00000004
CSRC                              00000007
CUENTA                            00000024
CVR0                              00000000
CVR1                              00000001
CVR2                              00000002
CVR3                              00000003
CVRCON                            0000009D
CVREN                             00000007
CVROE                             00000006
CVRR                              00000005
D                                 00000005
DATAS                             00000023
DATA_ADDRESS                      00000005
DATA_GUARDAR                      00000022
DATO                              00000025
DC                                00000001
D_A                               00000005
D_NOT_A                           00000005
E                                 PORTC,1
EEADR                             0000010D
EEADRH                            0000010F
EECON1                            0000018C
EECON2                            0000018D
EEDATA                            0000010C
EEDATH                            0000010E
EEIE                              00000004
EEIF                              00000004
EEPGD                             00000007
ENABLE                            0000007A
F                                 00000001
FERR                              00000002
FSR                               00000004
GCEN                              00000007
GIE                               00000007
GO                                00000002
GO_DONE                           00000002
GO_NOT_DONE                       00000002
GUARDAR_DATO                      00000020
I2C_DATA                          00000005
I2C_READ                          00000002
I2C_START                         00000003
I2C_STOP                          00000004
IBF                               00000007
MPASM 5.84            PROGRAMA_PRINCIPAL.ASM   6-6-2020  17:45:30         PAGE  7


SYMBOL TABLE
  LABEL                             VALUE 

IBOV                              00000005
INDF                              00000000
INICIO                            00000020
INTCON                            0000000B
INTE                              00000004
INTEDG                            00000006
INTF                              00000001
IRP                               00000007
LCD_2LINEAS                       00000056
LCD_BORRAR                        00000052
LCD_CARACTER                      0000005F
LCD_COMANDO                       00000058
LCD_CONFIG                        00000070
LCD_DATOS                         00000066
LCD_DISPLAY                       00000050
LCD_INCR                          00000054
LCD_INIT                          00000036
LCD_LINEA1                        0000004E
LCD_LINEA2                        0000004C
NOT_A                             00000005
NOT_ADDRESS                       00000005
NOT_BO                            00000000
NOT_BOR                           00000000
NOT_DONE                          00000002
NOT_PD                            00000003
NOT_POR                           00000001
NOT_RBPU                          00000007
NOT_RC8                           00000006
NOT_T1SYNC                        00000002
NOT_TO                            00000004
NOT_TX8                           00000006
NOT_W                             00000002
NOT_WRITE                         00000002
OBF                               00000006
OERR                              00000001
OPTION_REG                        00000081
P                                 00000004
PCFG0                             00000000
PCFG1                             00000001
PCFG2                             00000002
PCFG3                             00000003
PCL                               00000002
PCLATH                            0000000A
PCON                              0000008E
PEIE                              00000006
PEN                               00000002
PIE1                              0000008C
PIE2                              0000008D
PIR1                              0000000C
PIR2                              0000000D
PORTA                             00000005
PORTB                             00000006
PORTC                             00000007
MPASM 5.84            PROGRAMA_PRINCIPAL.ASM   6-6-2020  17:45:30         PAGE  8


SYMBOL TABLE
  LABEL                             VALUE 

PORTD                             00000008
PORTE                             00000009
PR2                               00000092
PS0                               00000000
PS1                               00000001
PS2                               00000002
PSA                               00000003
PSPIE                             00000007
PSPIF                             00000007
PSPMODE                           00000004
R                                 00000002
RA0                               00000000
RA1                               00000001
RA2                               00000002
RA3                               00000003
RA4                               00000004
RA5                               00000005
RB0                               00000000
RB1                               00000001
RB2                               00000002
RB3                               00000003
RB4                               00000004
RB5                               00000005
RB6                               00000006
RB7                               00000007
RBIE                              00000003
RBIF                              00000000
RC0                               00000000
RC1                               00000001
RC2                               00000002
RC3                               00000003
RC4                               00000004
RC5                               00000005
RC6                               00000006
RC7                               00000007
RC8_9                             00000006
RC9                               00000006
RCD8                              00000000
RCEN                              00000003
RCIE                              00000005
RCIF                              00000005
RCREG                             0000001A
RCSTA                             00000018
RD                                00000000
RD0                               00000000
RD1                               00000001
RD2                               00000002
RD3                               00000003
RD4                               00000004
RD5                               00000005
RD6                               00000006
RD7                               00000007
RE0                               00000000
MPASM 5.84            PROGRAMA_PRINCIPAL.ASM   6-6-2020  17:45:30         PAGE  9


SYMBOL TABLE
  LABEL                             VALUE 

RE1                               00000001
RE2                               00000002
READ_WRITE                        00000002
RP0                               00000005
RP1                               00000006
RS                                PORTC,0
RSEN                              00000001
RX9                               00000006
RX9D                              00000000
R_NOT_W                           00000002
R_W                               00000002
Retardo_1ms                       00000080
S                                 00000003
SEN                               00000000
SMP                               00000007
SPBRG                             00000099
SPEN                              00000007
SREN                              00000005
SSPADD                            00000093
SSPBUF                            00000013
SSPCON                            00000014
SSPCON2                           00000091
SSPEN                             00000005
SSPIE                             00000003
SSPIF                             00000003
SSPM0                             00000000
SSPM1                             00000001
SSPM2                             00000002
SSPM3                             00000003
SSPOV                             00000006
SSPSTAT                           00000094
START                             00000035
STATUS                            00000003
SYNC                              00000004
T0CS                              00000005
T0IE                              00000005
T0IF                              00000002
T0SE                              00000004
T1CKPS0                           00000004
T1CKPS1                           00000005
T1CON                             00000010
T1INSYNC                          00000002
T1OSCEN                           00000003
T1SYNC                            00000002
T2CKPS0                           00000000
T2CKPS1                           00000001
T2CON                             00000012
TMR0                              00000001
TMR0IE                            00000005
TMR0IF                            00000002
TMR1                              0000000E
TMR1CS                            00000001
TMR1H                             0000000F
MPASM 5.84            PROGRAMA_PRINCIPAL.ASM   6-6-2020  17:45:30         PAGE 10


SYMBOL TABLE
  LABEL                             VALUE 

TMR1IE                            00000000
TMR1IF                            00000000
TMR1L                             0000000E
TMR1ON                            00000000
TMR2                              00000011
TMR2IE                            00000001
TMR2IF                            00000001
TMR2ON                            00000002
TOUTPS0                           00000003
TOUTPS1                           00000004
TOUTPS2                           00000005
TOUTPS3                           00000006
TRISA                             00000085
TRISA0                            00000000
TRISA1                            00000001
TRISA2                            00000002
TRISA3                            00000003
TRISA4                            00000004
TRISA5                            00000005
TRISB                             00000086
TRISB0                            00000000
TRISB1                            00000001
TRISB2                            00000002
TRISB3                            00000003
TRISB4                            00000004
TRISB5                            00000005
TRISB6                            00000006
TRISB7                            00000007
TRISC                             00000087
TRISC0                            00000000
TRISC1                            00000001
TRISC2                            00000002
TRISC3                            00000003
TRISC4                            00000004
TRISC5                            00000005
TRISC6                            00000006
TRISC7                            00000007
TRISD                             00000088
TRISD0                            00000000
TRISD1                            00000001
TRISD2                            00000002
TRISD3                            00000003
TRISD4                            00000004
TRISD5                            00000005
TRISD6                            00000006
TRISD7                            00000007
TRISE                             00000089
TRISE0                            00000000
TRISE1                            00000001
TRISE2                            00000002
TRMT                              00000001
TX8_9                             00000006
TX9                               00000006
MPASM 5.84            PROGRAMA_PRINCIPAL.ASM   6-6-2020  17:45:30         PAGE 11


SYMBOL TABLE
  LABEL                             VALUE 

TX9D                              00000000
TXD8                              00000000
TXEN                              00000005
TXIE                              00000004
TXIF                              00000004
TXREG                             00000019
TXSTA                             00000098
UA                                00000001
W                                 00000000
WCOL                              00000007
WR                                00000001
WREN                              00000002
WRERR                             00000003
Z                                 00000002
_BODEN_OFF                        00003FBF
_BODEN_ON                         00003FFF
_BOREN_OFF                        00003FBF
_BOREN_ON                         00003FFF
_CONFIG                           00002007
_CPD_OFF                          00003FFF
_CPD_ON                           00003EFF
_CP_ALL                           00001FFF
_CP_OFF                           00003FFF
_CP_ON                            00001FFF
_DEBUG_OFF                        00003FFF
_DEBUG_ON                         000037FF
_DEVID1                           00002006
_FOSC_EXTRC                       00003FFF
_FOSC_HS                          00003FFE
_FOSC_LP                          00003FFC
_FOSC_XT                          00003FFD
_HS_OSC                           00003FFE
_IDLOC0                           00002000
_IDLOC1                           00002001
_IDLOC2                           00002002
_IDLOC3                           00002003
_LP_OSC                           00003FFC
_LVP_OFF                          00003F7F
_LVP_ON                           00003FFF
_PWRTE_OFF                        00003FFF
_PWRTE_ON                         00003FF7
_RC_OSC                           00003FFF
_WDTE_OFF                         00003FFB
_WDTE_ON                          00003FFF
_WDT_OFF                          00003FFB
_WDT_ON                           00003FFF
_WRT_1FOURTH                      00003BFF
_WRT_256                          00003DFF
_WRT_HALF                         000039FF
_WRT_OFF                          00003FFF
_XT_OSC                           00003FFD
__16F877A                         00000001

MPASM 5.84            PROGRAMA_PRINCIPAL.ASM   6-6-2020  17:45:30         PAGE 12





Errors   :     0
Warnings :     2 reported,     0 suppressed
Messages :     4 reported,     0 suppressed

